target datalayout = "e-m:e-p270:32:32-p271:32:32-p272:64:64-i64:64-i128:128-f80:128-n8:16:32:64-S128"
target triple = "x86_64-unknown-linux-gnu"

%struct.QCryptoBlockLUKSHeader = type { [6 x i8], i16, [32 x i8], [32 x i8], [32 x i8], i32, i32, [20 x i8], [32 x i8], i32, [40 x i8], [8 x %struct.QCryptoBlockLUKSKeySlot] }
%struct.QCryptoBlockLUKSKeySlot = type { i32, i32, [32 x i8], i32, i32 }
%struct.QCryptoBlock = type { i32, ptr, ptr, ptr, i64, i64, ptr, %struct.QemuMutex, i32, i64, i64, i64 }
%struct.QemuMutex = type { %union.pthread_mutex_t, i8 }
%union.pthread_mutex_t = type { %struct.__pthread_mutex_s }
%struct.__pthread_mutex_s = type { i32, i32, i32, i32, i32, i16, i16, %struct.__pthread_internal_list }
%struct.__pthread_internal_list = type { ptr, ptr }
%struct.QCryptoBlockLUKS = type { %struct.QCryptoBlockLUKSHeader, i32, i32, i32, i32, i32, i32, ptr }

@.str = private unnamed_addr constant [28 x i8] c"../qemu/crypto/block-luks.c\00", align 1
@.str.32 = private unnamed_addr constant [44 x i8] c"slot_idx < QCRYPTO_BLOCK_LUKS_NUM_KEY_SLOTS\00", align 1
@__PRETTY_FUNCTION__.qcrypto_block_luks_erase_key = private unnamed_addr constant [104 x i8] c"int qcrypto_block_luks_erase_key(QCryptoBlock *, unsigned int, QCryptoBlockWriteFunc, void *, Error **)\00", align 1
@.str.60 = private unnamed_addr constant [16 x i8] c"splitkeylen > 0\00", align 1

; Function Attrs: nounwind sspstrong uwtable
define internal void @g_autoptr_cleanup_generic_gfree(ptr noundef %p) #0 {
entry:
  %p.addr = alloca ptr, align 8
  %pp = alloca ptr, align 8
  store ptr %p, ptr %p.addr, align 8
  %0 = load ptr, ptr %p.addr, align 8
  store ptr %0, ptr %pp, align 8
  %1 = load ptr, ptr %pp, align 8
  %2 = load ptr, ptr %1, align 8
  call void @g_free(ptr noundef %2)
  ret void
}

; Function Attrs: nounwind sspstrong uwtable
define internal i32 @qcrypto_block_luks_erase_key(ptr noundef %block, i32 noundef %slot_idx, ptr noundef %writefunc, ptr noundef %opaque, ptr noundef %errp) #0 {
entry:
  %retval = alloca i32, align 4
  %block.addr = alloca ptr, align 8
  %slot_idx.addr = alloca i32, align 4
  %writefunc.addr = alloca ptr, align 8
  %opaque.addr = alloca ptr, align 8
  %errp.addr = alloca ptr, align 8
  %luks = alloca ptr, align 8
  %slot = alloca ptr, align 8
  %garbagesplitkey = alloca ptr, align 8
  %splitkeylen = alloca i64, align 8
  %i = alloca i64, align 8
  %local_err = alloca ptr, align 8
  %ret = alloca i32, align 4
  %cleanup.dest.slot = alloca i32, align 4
  store ptr %block, ptr %block.addr, align 8
  store i32 %slot_idx, ptr %slot_idx.addr, align 4
  store ptr %writefunc, ptr %writefunc.addr, align 8
  store ptr %opaque, ptr %opaque.addr, align 8
  store ptr %errp, ptr %errp.addr, align 8
  %0 = load ptr, ptr %block.addr, align 8
  %opaque1 = getelementptr inbounds %struct.QCryptoBlock, ptr %0, i32 0, i32 2
  %1 = load ptr, ptr %opaque1, align 8
  store ptr %1, ptr %luks, align 8
  store ptr null, ptr %garbagesplitkey, align 8
  store ptr null, ptr %local_err, align 8
  %2 = load i32, ptr %slot_idx.addr, align 4
  %cmp = icmp ult i32 %2, 8
  br i1 %cmp, label %if.then, label %if.else

if.then:                                          ; preds = %entry
  br label %if.end

if.else:                                          ; preds = %entry
  call void @__assert_fail(ptr noundef @.str.32, ptr noundef @.str, i32 noundef 1122, ptr noundef @__PRETTY_FUNCTION__.qcrypto_block_luks_erase_key) #16
  unreachable

if.end:                                           ; preds = %if.then
  %3 = load ptr, ptr %luks, align 8
  %header = getelementptr inbounds %struct.QCryptoBlockLUKS, ptr %3, i32 0, i32 0
  %key_slots = getelementptr inbounds %struct.QCryptoBlockLUKSHeader, ptr %header, i32 0, i32 11
  %4 = load i32, ptr %slot_idx.addr, align 4
  %idxprom = zext i32 %4 to i64
  %arrayidx = getelementptr [8 x %struct.QCryptoBlockLUKSKeySlot], ptr %key_slots, i64 0, i64 %idxprom
  store ptr %arrayidx, ptr %slot, align 8
  %5 = load ptr, ptr %luks, align 8
  %header2 = getelementptr inbounds %struct.QCryptoBlockLUKS, ptr %5, i32 0, i32 0
  %master_key_len = getelementptr inbounds %struct.QCryptoBlockLUKSHeader, ptr %header2, i32 0, i32 6
  %6 = load i32, ptr %master_key_len, align 4
  %7 = load ptr, ptr %slot, align 8
  %stripes = getelementptr inbounds %struct.QCryptoBlockLUKSKeySlot, ptr %7, i32 0, i32 4
  %8 = load i32, ptr %stripes, align 4
  %mul = mul i32 %6, %8
  %conv = zext i32 %mul to i64
  store i64 %conv, ptr %splitkeylen, align 8
  %9 = load i64, ptr %splitkeylen, align 8
  %cmp3 = icmp ugt i64 %9, 0
  br i1 %cmp3, label %if.then5, label %if.else6

if.then5:                                         ; preds = %if.end
  br label %if.end7

if.else6:                                         ; preds = %if.end
  call void @__assert_fail(ptr noundef @.str.60, ptr noundef @.str, i32 noundef 1126, ptr noundef @__PRETTY_FUNCTION__.qcrypto_block_luks_erase_key) #16
  unreachable

if.end7:                                          ; preds = %if.then5
  %10 = load i64, ptr %splitkeylen, align 8
  %call = call noalias ptr @g_malloc0_n(i64 noundef %10, i64 noundef 1) #11
  store ptr %call, ptr %garbagesplitkey, align 8
  %11 = load ptr, ptr %slot, align 8
  %salt = getelementptr inbounds %struct.QCryptoBlockLUKSKeySlot, ptr %11, i32 0, i32 2
  %arraydecay = getelementptr inbounds [32 x i8], ptr %salt, i64 0, i64 0
  call void @llvm.memset.p0.i64(ptr align 4 %arraydecay, i8 0, i64 32, i1 false)
  %12 = load ptr, ptr %slot, align 8
  %iterations = getelementptr inbounds %struct.QCryptoBlockLUKSKeySlot, ptr %12, i32 0, i32 1
  store i32 0, ptr %iterations, align 4
  %13 = load ptr, ptr %slot, align 8
  %active = getelementptr inbounds %struct.QCryptoBlockLUKSKeySlot, ptr %13, i32 0, i32 0
  store i32 57005, ptr %active, align 4
  %14 = load ptr, ptr %block.addr, align 8
  %15 = load ptr, ptr %writefunc.addr, align 8
  %16 = load ptr, ptr %opaque.addr, align 8
  %call8 = call i32 @qcrypto_block_luks_store_header(ptr noundef %14, ptr noundef %15, ptr noundef %16, ptr noundef %local_err)
  store i32 %call8, ptr %ret, align 4
  %17 = load i32, ptr %ret, align 4
  %cmp9 = icmp slt i32 %17, 0
  br i1 %cmp9, label %if.then11, label %if.end12

if.then11:                                        ; preds = %if.end7
  %18 = load ptr, ptr %errp.addr, align 8
  %19 = load ptr, ptr %local_err, align 8
  call void @error_propagate(ptr noundef %18, ptr noundef %19)
  br label %if.end12

if.end12:                                         ; preds = %if.then11, %if.end7
  store i64 0, ptr %i, align 8
  br label %for.cond

for.cond:                                         ; preds = %for.inc, %if.end12
  %20 = load i64, ptr %i, align 8
  %cmp13 = icmp ult i64 %20, 40
  br i1 %cmp13, label %for.body, label %for.end

for.body:                                         ; preds = %for.cond
  %21 = load ptr, ptr %garbagesplitkey, align 8
  %22 = load i64, ptr %splitkeylen, align 8
  %call15 = call i32 @qcrypto_random_bytes(ptr noundef %21, i64 noundef %22, ptr noundef %local_err)
  %cmp16 = icmp slt i32 %call15, 0
  br i1 %cmp16, label %if.then18, label %if.end23

if.then18:                                        ; preds = %for.body
  %23 = load ptr, ptr %errp.addr, align 8
  %24 = load ptr, ptr %local_err, align 8
  call void @error_propagate(ptr noundef %23, ptr noundef %24)
  %25 = load i64, ptr %i, align 8
  %cmp19 = icmp ugt i64 %25, 0
  br i1 %cmp19, label %if.then21, label %if.end22

if.then21:                                        ; preds = %if.then18
  store i32 -1, ptr %retval, align 4
  store i32 1, ptr %cleanup.dest.slot, align 4
  br label %cleanup

if.end22:                                         ; preds = %if.then18
  br label %if.end23

if.end23:                                         ; preds = %if.end22, %for.body
  %26 = load ptr, ptr %writefunc.addr, align 8
  %27 = load ptr, ptr %block.addr, align 8
  %28 = load ptr, ptr %slot, align 8
  %key_offset_sector = getelementptr inbounds %struct.QCryptoBlockLUKSKeySlot, ptr %28, i32 0, i32 3
  %29 = load i32, ptr %key_offset_sector, align 4
  %conv24 = zext i32 %29 to i64
  %mul25 = mul i64 %conv24, 512
  %30 = load ptr, ptr %garbagesplitkey, align 8
  %31 = load i64, ptr %splitkeylen, align 8
  %32 = load ptr, ptr %opaque.addr, align 8
  %call26 = call i32 %26(ptr noundef %27, i64 noundef %mul25, ptr noundef %30, i64 noundef %31, ptr noundef %32, ptr noundef %local_err)
  %cmp27 = icmp slt i32 %call26, 0
  br i1 %cmp27, label %if.then29, label %if.end30

if.then29:                                        ; preds = %if.end23
  %33 = load ptr, ptr %errp.addr, align 8
  %34 = load ptr, ptr %local_err, align 8
  call void @error_propagate(ptr noundef %33, ptr noundef %34)
  store i32 -1, ptr %retval, align 4
  store i32 1, ptr %cleanup.dest.slot, align 4
  br label %cleanup

if.end30:                                         ; preds = %if.end23
  br label %for.inc

for.inc:                                          ; preds = %if.end30
  %35 = load i64, ptr %i, align 8
  %inc = add i64 %35, 1
  store i64 %inc, ptr %i, align 8
  br label %for.cond, !llvm.loop !21

for.end:                                          ; preds = %for.cond
  %36 = load i32, ptr %ret, align 4
  store i32 %36, ptr %retval, align 4
  store i32 1, ptr %cleanup.dest.slot, align 4
  br label %cleanup

cleanup:                                          ; preds = %for.end, %if.then29, %if.then21
  call void @g_autoptr_cleanup_generic_gfree(ptr noundef %garbagesplitkey)
  %37 = load i32, ptr %retval, align 4
  ret i32 %37
}