; Function Attrs: nounwind sspstrong uwtable
define internal fastcc range(i32 -1, 1) i32 @qcrypto_block_luks_erase_key(ptr noundef %block, i32 noundef range(i32 0, 8) %slot_idx, ptr noundef readonly captures(none) %writefunc, ptr noundef %opaque, ptr noundef %errp) unnamed_addr #1 {
entry:
  %local_err = alloca ptr, align 8
  %opaque1 = getelementptr inbounds nuw i8, ptr %block, i64 16
  %0 = load ptr, ptr %opaque1, align 8
  store ptr null, ptr %local_err, align 8
  %key_slots = getelementptr inbounds nuw i8, ptr %0, i64 208
  %idxprom = zext nneg i32 %slot_idx to i64
  %arrayidx = getelementptr [8 x %struct.QCryptoBlockLUKSKeySlot], ptr %key_slots, i64 0, i64 %idxprom
  %master_key_len = getelementptr inbounds nuw i8, ptr %0, i64 108
  %1 = load i32, ptr %master_key_len, align 4
  %stripes = getelementptr inbounds nuw i8, ptr %arrayidx, i64 44
  %2 = load i32, ptr %stripes, align 4
  %mul = mul i32 %2, %1
  %conv = zext i32 %mul to i64
  %cmp3.not = icmp eq i32 %mul, 0
  br i1 %cmp3.not, label %if.else6, label %if.end7

if.else6:                                         ; preds = %entry
  tail call void @__assert_fail(ptr noundef nonnull @.str.60, ptr noundef nonnull @.str, i32 noundef 1126, ptr noundef nonnull @__PRETTY_FUNCTION__.qcrypto_block_luks_erase_key) #19
  unreachable

if.end7:                                          ; preds = %entry
  %call = tail call noalias ptr @g_malloc0_n(i64 noundef %conv, i64 noundef 1) #17
  %iterations = getelementptr inbounds nuw i8, ptr %arrayidx, i64 4
  tail call void @llvm.memset.p0.i64(ptr noundef nonnull align 4 dereferenceable(36) %iterations, i8 0, i64 36, i1 false)
  store i32 57005, ptr %arrayidx, align 4
  %call8 = call fastcc i32 @qcrypto_block_luks_store_header(ptr noundef nonnull %block, ptr noundef %writefunc, ptr noundef %opaque, ptr noundef nonnull %local_err)
  %cmp9 = icmp slt i32 %call8, 0
  br i1 %cmp9, label %if.then11, label %if.end12

if.then11:                                        ; preds = %if.end7
  %3 = load ptr, ptr %local_err, align 8
  call void @error_propagate(ptr noundef %errp, ptr noundef %3) #16
  br label %if.end12

if.end12:                                         ; preds = %if.then11, %if.end7
  %key_offset_sector = getelementptr inbounds nuw i8, ptr %arrayidx, i64 40
  br label %for.body

for.cond:                                         ; preds = %if.end23
  %inc = add nuw nsw i64 %i.020, 1
  %exitcond.not = icmp eq i64 %inc, 40
  br i1 %exitcond.not, label %cleanup, label %for.body, !llvm.loop !21

for.body:                                         ; preds = %if.end12, %for.cond
  %i.020 = phi i64 [ 0, %if.end12 ], [ %inc, %for.cond ]
  %call15 = call i32 @qcrypto_random_bytes(ptr noundef %call, i64 noundef %conv, ptr noundef nonnull %local_err) #16
  %cmp16 = icmp slt i32 %call15, 0
  br i1 %cmp16, label %if.then18, label %if.end23

if.then18:                                        ; preds = %for.body
  %4 = load ptr, ptr %local_err, align 8
  call void @error_propagate(ptr noundef %errp, ptr noundef %4) #16
  %cmp19.not = icmp eq i64 %i.020, 0
  br i1 %cmp19.not, label %if.end23, label %cleanup

if.end23:                                         ; preds = %if.then18, %for.body
  %5 = load i32, ptr %key_offset_sector, align 4
  %conv24 = zext i32 %5 to i64
  %mul25 = shl nuw nsw i64 %conv24, 9
  %call26 = call i32 %writefunc(ptr noundef nonnull %block, i64 noundef %mul25, ptr noundef %call, i64 noundef %conv, ptr noundef %opaque, ptr noundef nonnull %local_err) #16
  %cmp27 = icmp slt i32 %call26, 0
  br i1 %cmp27, label %if.then29, label %for.cond

if.then29:                                        ; preds = %if.end23
  %6 = load ptr, ptr %local_err, align 8
  call void @error_propagate(ptr noundef %errp, ptr noundef %6) #16
  br label %cleanup

cleanup:                                          ; preds = %for.cond, %if.then18, %if.then29
  %retval.0 = phi i32 [ -1, %if.then29 ], [ %call8, %for.cond ], [ -1, %if.then18 ]
  call void @g_free(ptr noundef %call) #16
  ret i32 %retval.0
}